; Function Attrs: nounwind uwtable
define internal ptr @_testmultiphase_StateAccessType_get_defining_module(ptr readnone captures(none) %0, ptr noundef %1, ptr readnone captures(none) %2, i64 noundef %3, ptr noundef readonly %4) #0 {
  %.not = icmp eq i64 %3, 0
  br i1 %.not, label %6, label %9

6:                                                ; preds = %5
  %.not6 = icmp eq ptr %4, null
  br i1 %.not6, label %11, label %7

7:                                                ; preds = %6
  %8 = getelementptr i8, ptr %4, i64 16
  %.val = load i64, ptr %8, align 8, !tbaa !28
  %.not7 = icmp eq i64 %.val, 0
  br i1 %.not7, label %11, label %9

9:                                                ; preds = %7, %5
  %10 = load ptr, ptr @PyExc_TypeError, align 8, !tbaa !3
  tail call void @PyErr_SetString(ptr noundef %10, ptr noundef nonnull @.str.95) #4
  br label %_testmultiphase_StateAccessType_get_defining_module_impl.exit

11:                                               ; preds = %7, %6
  %12 = tail call ptr @PyType_GetModule(ptr noundef %1) #4
  %13 = icmp eq ptr %12, null
  br i1 %13, label %_testmultiphase_StateAccessType_get_defining_module_impl.exit, label %14

14:                                               ; preds = %11
  %15 = load i32, ptr %12, align 8, !tbaa !8
  %16 = icmp slt i32 %15, 0
  br i1 %16, label %_testmultiphase_StateAccessType_get_defining_module_impl.exit, label %17

17:                                               ; preds = %14
  %18 = add nuw i32 %15, 1
  store i32 %18, ptr %12, align 8, !tbaa !8
  br label %_testmultiphase_StateAccessType_get_defining_module_impl.exit

_testmultiphase_StateAccessType_get_defining_module_impl.exit: ; preds = %17, %14, %11, %9
  %.0 = phi ptr [ null, %9 ], [ null, %11 ], [ %12, %14 ], [ %12, %17 ]
  ret ptr %.0
}